target datalayout = "e-m:e-p270:32:32-p271:32:32-p272:64:64-i64:64-i128:128-f80:128-n8:16:32:64-S128"
target triple = "x86_64-pc-linux-gnu"

%struct.stbds_string_arena = type { ptr, i64, i8, i8 }
%struct.stbds_string_block = type { ptr, [8 x i8] }

; Function Attrs: nounwind uwtable
define ptr @stbds_stralloc(ptr noundef %0, ptr noundef %1) #0 {
  %3 = alloca ptr, align 8
  %4 = alloca ptr, align 8
  %5 = alloca ptr, align 8
  %6 = alloca ptr, align 8
  %7 = alloca i64, align 8
  %8 = alloca i64, align 8
  %9 = alloca ptr, align 8
  %10 = alloca i32, align 4
  %11 = alloca ptr, align 8
  store ptr %0, ptr %4, align 8, !tbaa !49
  store ptr %1, ptr %5, align 8, !tbaa !39
  call void @llvm.lifetime.start.p0(i64 8, ptr %6) #7
  call void @llvm.lifetime.start.p0(i64 8, ptr %7) #7
  %12 = load ptr, ptr %5, align 8, !tbaa !39
  %13 = call i64 @strlen(ptr noundef %12) #9
  %14 = add i64 %13, 1
  store i64 %14, ptr %7, align 8, !tbaa !7
  %15 = load i64, ptr %7, align 8, !tbaa !7
  %16 = load ptr, ptr %4, align 8, !tbaa !49
  %17 = getelementptr inbounds nuw %struct.stbds_string_arena, ptr %16, i32 0, i32 1
  %18 = load i64, ptr %17, align 8, !tbaa !61
  %19 = icmp ugt i64 %15, %18
  br i1 %19, label %20, label %96

20:                                               ; preds = %2
  call void @llvm.lifetime.start.p0(i64 8, ptr %8) #7
  %21 = load ptr, ptr %4, align 8, !tbaa !49
  %22 = getelementptr inbounds nuw %struct.stbds_string_arena, ptr %21, i32 0, i32 2
  %23 = load i8, ptr %22, align 8, !tbaa !62
  %24 = zext i8 %23 to i64
  store i64 %24, ptr %8, align 8, !tbaa !7
  %25 = load i64, ptr %8, align 8, !tbaa !7
  %26 = lshr i64 %25, 1
  %27 = shl i64 512, %26
  store i64 %27, ptr %8, align 8, !tbaa !7
  %28 = load i64, ptr %8, align 8, !tbaa !7
  %29 = icmp ult i64 %28, 1048576
  br i1 %29, label %30, label %35

30:                                               ; preds = %20
  %31 = load ptr, ptr %4, align 8, !tbaa !49
  %32 = getelementptr inbounds nuw %struct.stbds_string_arena, ptr %31, i32 0, i32 2
  %33 = load i8, ptr %32, align 8, !tbaa !62
  %34 = add i8 %33, 1
  store i8 %34, ptr %32, align 8, !tbaa !62
  br label %35

35:                                               ; preds = %30, %20
  %36 = load i64, ptr %7, align 8, !tbaa !7
  %37 = load i64, ptr %8, align 8, !tbaa !7
  %38 = icmp ugt i64 %36, %37
  br i1 %38, label %39, label %77

39:                                               ; preds = %35
  call void @llvm.lifetime.start.p0(i64 8, ptr %9) #7
  %40 = load i64, ptr %7, align 8, !tbaa !7
  %41 = add i64 8, %40
  %42 = call ptr @realloc(ptr noundef null, i64 noundef %41) #8
  store ptr %42, ptr %9, align 8, !tbaa !29
  %43 = load ptr, ptr %9, align 8, !tbaa !29
  %44 = getelementptr inbounds nuw %struct.stbds_string_block, ptr %43, i32 0, i32 1
  %45 = getelementptr inbounds [8 x i8], ptr %44, i64 0, i64 0
  %46 = load ptr, ptr %5, align 8, !tbaa !39
  %47 = load i64, ptr %7, align 8, !tbaa !7
  call void @llvm.memmove.p0.p0.i64(ptr align 8 %45, ptr align 1 %46, i64 %47, i1 false)
  %48 = load ptr, ptr %4, align 8, !tbaa !49
  %49 = getelementptr inbounds nuw %struct.stbds_string_arena, ptr %48, i32 0, i32 0
  %50 = load ptr, ptr %49, align 8, !tbaa !51
  %51 = icmp ne ptr %50, null
  br i1 %51, label %52, label %65

52:                                               ; preds = %39
  %53 = load ptr, ptr %4, align 8, !tbaa !49
  %54 = getelementptr inbounds nuw %struct.stbds_string_arena, ptr %53, i32 0, i32 0
  %55 = load ptr, ptr %54, align 8, !tbaa !51
  %56 = getelementptr inbounds nuw %struct.stbds_string_block, ptr %55, i32 0, i32 0
  %57 = load ptr, ptr %56, align 8, !tbaa !52
  %58 = load ptr, ptr %9, align 8, !tbaa !29
  %59 = getelementptr inbounds nuw %struct.stbds_string_block, ptr %58, i32 0, i32 0
  store ptr %57, ptr %59, align 8, !tbaa !52
  %60 = load ptr, ptr %9, align 8, !tbaa !29
  %61 = load ptr, ptr %4, align 8, !tbaa !49
  %62 = getelementptr inbounds nuw %struct.stbds_string_arena, ptr %61, i32 0, i32 0
  %63 = load ptr, ptr %62, align 8, !tbaa !51
  %64 = getelementptr inbounds nuw %struct.stbds_string_block, ptr %63, i32 0, i32 0
  store ptr %60, ptr %64, align 8, !tbaa !52
  br label %73

65:                                               ; preds = %39
  %66 = load ptr, ptr %9, align 8, !tbaa !29
  %67 = getelementptr inbounds nuw %struct.stbds_string_block, ptr %66, i32 0, i32 0
  store ptr null, ptr %67, align 8, !tbaa !52
  %68 = load ptr, ptr %9, align 8, !tbaa !29
  %69 = load ptr, ptr %4, align 8, !tbaa !49
  %70 = getelementptr inbounds nuw %struct.stbds_string_arena, ptr %69, i32 0, i32 0
  store ptr %68, ptr %70, align 8, !tbaa !51
  %71 = load ptr, ptr %4, align 8, !tbaa !49
  %72 = getelementptr inbounds nuw %struct.stbds_string_arena, ptr %71, i32 0, i32 1
  store i64 0, ptr %72, align 8, !tbaa !61
  br label %73

73:                                               ; preds = %65, %52
  %74 = load ptr, ptr %9, align 8, !tbaa !29
  %75 = getelementptr inbounds nuw %struct.stbds_string_block, ptr %74, i32 0, i32 1
  %76 = getelementptr inbounds [8 x i8], ptr %75, i64 0, i64 0
  store ptr %76, ptr %3, align 8
  store i32 1, ptr %10, align 4
  call void @llvm.lifetime.end.p0(i64 8, ptr %9) #7
  br label %93

77:                                               ; preds = %35
  call void @llvm.lifetime.start.p0(i64 8, ptr %11) #7
  %78 = load i64, ptr %8, align 8, !tbaa !7
  %79 = add i64 8, %78
  %80 = call ptr @realloc(ptr noundef null, i64 noundef %79) #8
  store ptr %80, ptr %11, align 8, !tbaa !29
  %81 = load ptr, ptr %4, align 8, !tbaa !49
  %82 = getelementptr inbounds nuw %struct.stbds_string_arena, ptr %81, i32 0, i32 0
  %83 = load ptr, ptr %82, align 8, !tbaa !51
  %84 = load ptr, ptr %11, align 8, !tbaa !29
  %85 = getelementptr inbounds nuw %struct.stbds_string_block, ptr %84, i32 0, i32 0
  store ptr %83, ptr %85, align 8, !tbaa !52
  %86 = load ptr, ptr %11, align 8, !tbaa !29
  %87 = load ptr, ptr %4, align 8, !tbaa !49
  %88 = getelementptr inbounds nuw %struct.stbds_string_arena, ptr %87, i32 0, i32 0
  store ptr %86, ptr %88, align 8, !tbaa !51
  %89 = load i64, ptr %8, align 8, !tbaa !7
  %90 = load ptr, ptr %4, align 8, !tbaa !49
  %91 = getelementptr inbounds nuw %struct.stbds_string_arena, ptr %90, i32 0, i32 1
  store i64 %89, ptr %91, align 8, !tbaa !61
  call void @llvm.lifetime.end.p0(i64 8, ptr %11) #7
  br label %92

92:                                               ; preds = %77
  store i32 0, ptr %10, align 4
  br label %93

93:                                               ; preds = %92, %73
  call void @llvm.lifetime.end.p0(i64 8, ptr %8) #7
  %94 = load i32, ptr %10, align 4
  switch i32 %94, label %118 [
    i32 0, label %95
  ]

95:                                               ; preds = %93
  br label %96

96:                                               ; preds = %95, %2
  %97 = load ptr, ptr %4, align 8, !tbaa !49
  %98 = getelementptr inbounds nuw %struct.stbds_string_arena, ptr %97, i32 0, i32 0
  %99 = load ptr, ptr %98, align 8, !tbaa !51
  %100 = getelementptr inbounds nuw %struct.stbds_string_block, ptr %99, i32 0, i32 1
  %101 = getelementptr inbounds [8 x i8], ptr %100, i64 0, i64 0
  %102 = load ptr, ptr %4, align 8, !tbaa !49
  %103 = getelementptr inbounds nuw %struct.stbds_string_arena, ptr %102, i32 0, i32 1
  %104 = load i64, ptr %103, align 8, !tbaa !61
  %105 = getelementptr inbounds nuw i8, ptr %101, i64 %104
  %106 = load i64, ptr %7, align 8, !tbaa !7
  %107 = sub i64 0, %106
  %108 = getelementptr inbounds i8, ptr %105, i64 %107
  store ptr %108, ptr %6, align 8, !tbaa !39
  %109 = load i64, ptr %7, align 8, !tbaa !7
  %110 = load ptr, ptr %4, align 8, !tbaa !49
  %111 = getelementptr inbounds nuw %struct.stbds_string_arena, ptr %110, i32 0, i32 1
  %112 = load i64, ptr %111, align 8, !tbaa !61
  %113 = sub i64 %112, %109
  store i64 %113, ptr %111, align 8, !tbaa !61
  %114 = load ptr, ptr %6, align 8, !tbaa !39
  %115 = load ptr, ptr %5, align 8, !tbaa !39
  %116 = load i64, ptr %7, align 8, !tbaa !7
  call void @llvm.memmove.p0.p0.i64(ptr align 1 %114, ptr align 1 %115, i64 %116, i1 false)
  %117 = load ptr, ptr %6, align 8, !tbaa !39
  store ptr %117, ptr %3, align 8
  store i32 1, ptr %10, align 4
  br label %118

118:                                              ; preds = %96, %93
  call void @llvm.lifetime.end.p0(i64 8, ptr %7) #7
  call void @llvm.lifetime.end.p0(i64 8, ptr %6) #7
  %119 = load ptr, ptr %3, align 8
  ret ptr %119
}