; Function Attrs: mustprogress nofree nounwind willreturn uwtable
define nonnull ptr @stbds_stralloc(ptr noundef captures(none) %0, ptr noundef readonly captures(none) %1) local_unnamed_addr #15 {
  %3 = tail call i64 @strlen(ptr noundef nonnull dereferenceable(1) %1) #22
  %4 = add i64 %3, 1
  %5 = getelementptr inbounds nuw i8, ptr %0, i64 8
  %6 = load i64, ptr %5, align 8, !tbaa !49
  %7 = icmp ugt i64 %4, %6
  br i1 %7, label %8, label %._crit_edge

._crit_edge:                                      ; preds = %2
  %.pre = load ptr, ptr %0, align 8, !tbaa !40
  br label %28

8:                                                ; preds = %2
  %9 = getelementptr inbounds nuw i8, ptr %0, i64 16
  %10 = load i8, ptr %9, align 8, !tbaa !50
  %11 = lshr i8 %10, 1
  %12 = zext nneg i8 %11 to i64
  %13 = shl i64 512, %12
  %14 = icmp ult i64 %13, 1048576
  br i1 %14, label %15, label %17

15:                                               ; preds = %8
  %16 = add i8 %10, 1
  store i8 %16, ptr %9, align 8, !tbaa !50
  br label %17

17:                                               ; preds = %15, %8
  %.not45 = icmp ugt i64 %4, %13
  br i1 %.not45, label %18, label %25

18:                                               ; preds = %17
  %19 = add i64 %3, 9
  %malloc44 = tail call ptr @malloc(i64 %19)
  %20 = getelementptr inbounds nuw i8, ptr %malloc44, i64 8
  tail call void @llvm.memcpy.p0.p0.i64(ptr nonnull align 8 %20, ptr nonnull align 1 %1, i64 %4, i1 false)
  %21 = load ptr, ptr %0, align 8, !tbaa !40
  %.not = icmp eq ptr %21, null
  br i1 %.not, label %24, label %22

22:                                               ; preds = %18
  %23 = load ptr, ptr %21, align 8, !tbaa !41
  store ptr %23, ptr %malloc44, align 8, !tbaa !41
  store ptr %malloc44, ptr %21, align 8, !tbaa !41
  br label %.thread

24:                                               ; preds = %18
  store ptr null, ptr %malloc44, align 8, !tbaa !41
  store ptr %malloc44, ptr %0, align 8, !tbaa !40
  store i64 0, ptr %5, align 8, !tbaa !49
  br label %.thread

25:                                               ; preds = %17
  %26 = or disjoint i64 %13, 8
  %malloc = tail call ptr @malloc(i64 %26)
  %27 = load ptr, ptr %0, align 8, !tbaa !40
  store ptr %27, ptr %malloc, align 8, !tbaa !41
  store ptr %malloc, ptr %0, align 8, !tbaa !40
  br label %28

28:                                               ; preds = %._crit_edge, %25
  %29 = phi i64 [ %6, %._crit_edge ], [ %13, %25 ]
  %30 = phi ptr [ %.pre, %._crit_edge ], [ %malloc, %25 ]
  %31 = getelementptr inbounds nuw i8, ptr %30, i64 8
  %32 = getelementptr inbounds nuw i8, ptr %31, i64 %29
  %33 = xor i64 %3, -1
  %34 = getelementptr inbounds i8, ptr %32, i64 %33
  %35 = sub i64 %29, %4
  store i64 %35, ptr %5, align 8, !tbaa !49
  tail call void @llvm.memmove.p0.p0.i64(ptr nonnull align 1 %34, ptr nonnull align 1 %1, i64 %4, i1 false)
  br label %.thread

.thread:                                          ; preds = %24, %22, %28
  %.1 = phi ptr [ %34, %28 ], [ %20, %22 ], [ %20, %24 ]
  ret ptr %.1
}